; ModuleID = 'source-C-CXX/36/1552.c'
source_filename = "source-C-CXX/36/1552.c"
target datalayout = "e-m:e-p270:32:32-p271:32:32-p272:64:64-i64:64-f80:128-n8:16:32:64-S128"
target triple = "x86_64-pc-linux-gnu"

@.str = private unnamed_addr constant [3 x i8] c"%d\00", align 1
@.str.1 = private unnamed_addr constant [3 x i8] c"%s\00", align 1
@.str.2 = private unnamed_addr constant [4 x i8] c"%c\0A\00", align 1
@.str.3 = private unnamed_addr constant [3 x i8] c"no\00", align 1

; Function Attrs: nofree nounwind sspstrong uwtable
define dso_local i32 @main() local_unnamed_addr #0 {
  %1 = alloca i32, align 4
  %2 = alloca [26 x i32], align 16
  %3 = bitcast [26 x i32]* %2 to i8*
  %4 = alloca [100000 x i32], align 16
  %5 = alloca [100000 x i8], align 16
  %6 = bitcast i32* %1 to i8*
  call void @llvm.lifetime.start.p0i8(i64 4, i8* nonnull %6) #5
  call void @llvm.lifetime.start.p0i8(i64 104, i8* nonnull %3) #5
  %7 = bitcast [100000 x i32]* %4 to i8*
  call void @llvm.lifetime.start.p0i8(i64 400000, i8* nonnull %7) #5
  %8 = getelementptr inbounds [100000 x i8], [100000 x i8]* %5, i64 0, i64 0
  call void @llvm.lifetime.start.p0i8(i64 100000, i8* nonnull %8) #5
  %9 = call i32 (i8*, ...) @__isoc99_scanf(i8* getelementptr inbounds ([3 x i8], [3 x i8]* @.str, i64 0, i64 0), i32* nonnull %1)
  %10 = load i32, i32* %1, align 4, !tbaa !5
  %11 = icmp sgt i32 %10, 0
  br i1 %11, label %12, label %91

12:                                               ; preds = %0, %87
  %13 = phi i32 [ %88, %87 ], [ 0, %0 ]
  call void @llvm.memset.p0i8.i64(i8* noundef nonnull align 16 dereferenceable(104) %3, i8 0, i64 104, i1 false)
  %14 = call i32 (i8*, ...) @__isoc99_scanf(i8* getelementptr inbounds ([3 x i8], [3 x i8]* @.str.1, i64 0, i64 0), i8* nonnull %8)
  %15 = call i64 @strlen(i8* noundef nonnull %8) #6
  %16 = trunc i64 %15 to i32
  %17 = icmp sgt i32 %16, 0
  br i1 %17, label %18, label %85

18:                                               ; preds = %12
  %19 = and i64 %15, 4294967295
  %20 = and i64 %15, 1
  %21 = icmp eq i64 %19, 1
  br i1 %21, label %24, label %22

22:                                               ; preds = %18
  %23 = sub nsw i64 %19, %20
  br label %40

24:                                               ; preds = %40, %18
  %25 = phi i64 [ 0, %18 ], [ %62, %40 ]
  %26 = icmp eq i64 %20, 0
  br i1 %26, label %37, label %27

27:                                               ; preds = %24
  %28 = getelementptr inbounds [100000 x i8], [100000 x i8]* %5, i64 0, i64 %25
  %29 = load i8, i8* %28, align 1, !tbaa !9
  %30 = sext i8 %29 to i32
  %31 = add nsw i32 %30, -97
  %32 = getelementptr inbounds [100000 x i32], [100000 x i32]* %4, i64 0, i64 %25
  store i32 %31, i32* %32, align 4, !tbaa !5
  %33 = sext i32 %31 to i64
  %34 = getelementptr inbounds [26 x i32], [26 x i32]* %2, i64 0, i64 %33
  %35 = load i32, i32* %34, align 4, !tbaa !5
  %36 = add nsw i32 %35, 1
  store i32 %36, i32* %34, align 4, !tbaa !5
  br label %37

37:                                               ; preds = %24, %27
  br i1 %17, label %38, label %85

38:                                               ; preds = %37
  %39 = and i64 %15, 4294967295
  br label %65

40:                                               ; preds = %40, %22
  %41 = phi i64 [ 0, %22 ], [ %62, %40 ]
  %42 = phi i64 [ %23, %22 ], [ %63, %40 ]
  %43 = getelementptr inbounds [100000 x i8], [100000 x i8]* %5, i64 0, i64 %41
  %44 = load i8, i8* %43, align 2, !tbaa !9
  %45 = sext i8 %44 to i32
  %46 = add nsw i32 %45, -97
  %47 = getelementptr inbounds [100000 x i32], [100000 x i32]* %4, i64 0, i64 %41
  store i32 %46, i32* %47, align 8, !tbaa !5
  %48 = sext i32 %46 to i64
  %49 = getelementptr inbounds [26 x i32], [26 x i32]* %2, i64 0, i64 %48
  %50 = load i32, i32* %49, align 4, !tbaa !5
  %51 = add nsw i32 %50, 1
  store i32 %51, i32* %49, align 4, !tbaa !5
  %52 = or i64 %41, 1
  %53 = getelementptr inbounds [100000 x i8], [100000 x i8]* %5, i64 0, i64 %52
  %54 = load i8, i8* %53, align 1, !tbaa !9
  %55 = sext i8 %54 to i32
  %56 = add nsw i32 %55, -97
  %57 = getelementptr inbounds [100000 x i32], [100000 x i32]* %4, i64 0, i64 %52
  store i32 %56, i32* %57, align 4, !tbaa !5
  %58 = sext i32 %56 to i64
  %59 = getelementptr inbounds [26 x i32], [26 x i32]* %2, i64 0, i64 %58
  %60 = load i32, i32* %59, align 4, !tbaa !5
  %61 = add nsw i32 %60, 1
  store i32 %61, i32* %59, align 4, !tbaa !5
  %62 = add nuw nsw i64 %41, 2
  %63 = add i64 %42, -2
  %64 = icmp eq i64 %63, 0
  br i1 %64, label %24, label %40, !llvm.loop !10

65:                                               ; preds = %38, %79
  %66 = phi i64 [ 0, %38 ], [ %81, %79 ]
  %67 = phi i32 [ 0, %38 ], [ %80, %79 ]
  %68 = getelementptr inbounds [100000 x i32], [100000 x i32]* %4, i64 0, i64 %66
  %69 = load i32, i32* %68, align 4, !tbaa !5
  %70 = sext i32 %69 to i64
  %71 = getelementptr inbounds [26 x i32], [26 x i32]* %2, i64 0, i64 %70
  %72 = load i32, i32* %71, align 4, !tbaa !5
  %73 = icmp eq i32 %72, 1
  %74 = icmp eq i32 %67, 0
  %75 = select i1 %73, i1 %74, i1 false
  br i1 %75, label %76, label %79

76:                                               ; preds = %65
  %77 = add nsw i32 %69, 97
  %78 = call i32 (i8*, ...) @printf(i8* nonnull dereferenceable(1) getelementptr inbounds ([4 x i8], [4 x i8]* @.str.2, i64 0, i64 0), i32 %77)
  br label %79

79:                                               ; preds = %65, %76
  %80 = phi i32 [ 1, %76 ], [ %67, %65 ]
  %81 = add nuw nsw i64 %66, 1
  %82 = icmp eq i64 %81, %39
  br i1 %82, label %83, label %65, !llvm.loop !12

83:                                               ; preds = %79
  %84 = icmp eq i32 %80, 0
  br i1 %84, label %85, label %87

85:                                               ; preds = %12, %37, %83
  %86 = call i32 (i8*, ...) @printf(i8* nonnull dereferenceable(1) getelementptr inbounds ([3 x i8], [3 x i8]* @.str.3, i64 0, i64 0))
  br label %87

87:                                               ; preds = %83, %85
  %88 = add nuw nsw i32 %13, 1
  %89 = load i32, i32* %1, align 4, !tbaa !5
  %90 = icmp slt i32 %88, %89
  br i1 %90, label %12, label %91, !llvm.loop !13

91:                                               ; preds = %87, %0
  call void @llvm.lifetime.end.p0i8(i64 100000, i8* nonnull %8) #5
  call void @llvm.lifetime.end.p0i8(i64 400000, i8* nonnull %7) #5
  call void @llvm.lifetime.end.p0i8(i64 104, i8* nonnull %3) #5
  call void @llvm.lifetime.end.p0i8(i64 4, i8* nonnull %6) #5
  ret i32 0
}

; Function Attrs: argmemonly mustprogress nofree nosync nounwind willreturn
declare void @llvm.lifetime.start.p0i8(i64 immarg, i8* nocapture) #1

; Function Attrs: nofree nounwind
declare noundef i32 @__isoc99_scanf(i8* nocapture noundef readonly, ...) local_unnamed_addr #2

; Function Attrs: argmemonly mustprogress nofree nounwind readonly willreturn
declare i64 @strlen(i8* nocapture) local_unnamed_addr #3

; Function Attrs: nofree nounwind
declare noundef i32 @printf(i8* nocapture noundef readonly, ...) local_unnamed_addr #2

; Function Attrs: argmemonly mustprogress nofree nosync nounwind willreturn
declare void @llvm.lifetime.end.p0i8(i64 immarg, i8* nocapture) #1

; Function Attrs: argmemonly nofree nounwind willreturn writeonly
declare void @llvm.memset.p0i8.i64(i8* nocapture writeonly, i8, i64, i1 immarg) #4


!llvm.module.flags = !{!0, !1, !2, !3}
!llvm.ident = !{!4}

!0 = !{i32 1, !"wchar_size", i32 4}
!1 = !{i32 7, !"PIC Level", i32 2}
!2 = !{i32 7, !"PIE Level", i32 2}
!3 = !{i32 7, !"uwtable", i32 1}
!4 = !{!"clang version 13.0.0"}
!5 = !{!6, !6, i64 0}
!6 = !{!"int", !7, i64 0}
!7 = !{!"omnipotent char", !8, i64 0}
!8 = !{!"Simple C/C++ TBAA"}
!9 = !{!7, !7, i64 0}
!10 = distinct !{!10, !11}
!11 = !{!"llvm.loop.mustprogress"}
!12 = distinct !{!12, !11}
!13 = distinct !{!13, !11}
